target datalayout = "e-m:e-p270:32:32-p271:32:32-p272:64:64-i64:64-i128:128-f80:128-n8:16:32:64-S128"
target triple = "x86_64-pc-linux-gnu"

%"struct.faiss::IndexFastScan" = type { %"struct.faiss::Index.base", i32, i32, i32, i32, i64, i64, i64, i64, i64, i64, %"struct.faiss::AlignedTable", ptr }
%"struct.faiss::Index.base" = type <{ ptr, i32, [4 x i8], i64, i8, i8, [2 x i8], i32, float }>
%"struct.faiss::AlignedTable" = type { %"struct.faiss::AlignedTableTightAlloc", i64 }
%"struct.faiss::AlignedTableTightAlloc" = type { ptr, i64 }
%"struct.faiss::Index" = type <{ ptr, i32, [4 x i8], i64, i8, i8, [2 x i8], i32, float, [4 x i8] }>

@_ZTVN5faiss5IndexE = external unnamed_addr constant { [24 x ptr] }, align 8

; Function Attrs: mustprogress nounwind uwtable
define linkonce_odr void @_ZN5faiss22AlignedTableTightAllocIhLi32EEC2Ev(ptr noundef nonnull align 8 dereferenceable(16) %0) unnamed_addr #0 comdat align 2 {
  %2 = alloca ptr, align 8
  store ptr %0, ptr %2, align 8
  %3 = load ptr, ptr %2, align 8
  %4 = getelementptr inbounds %"struct.faiss::AlignedTableTightAlloc", ptr %3, i32 0, i32 0
  store ptr null, ptr %4, align 8
  %5 = getelementptr inbounds %"struct.faiss::AlignedTableTightAlloc", ptr %3, i32 0, i32 1
  store i64 0, ptr %5, align 8
  ret void
}

; Function Attrs: mustprogress uwtable
define linkonce_odr void @_ZN5faiss12AlignedTableIhLi32EEC2Ev(ptr noundef nonnull align 8 dereferenceable(24) %0) unnamed_addr #2 comdat align 2 {
  %2 = alloca ptr, align 8
  store ptr %0, ptr %2, align 8
  %3 = load ptr, ptr %2, align 8
  %4 = getelementptr inbounds %"struct.faiss::AlignedTable", ptr %3, i32 0, i32 0
  call void @_ZN5faiss22AlignedTableTightAllocIhLi32EEC2Ev(ptr noundef nonnull align 8 dereferenceable(16) %4)
  %5 = getelementptr inbounds %"struct.faiss::AlignedTable", ptr %3, i32 0, i32 1
  store i64 0, ptr %5, align 8
  ret void
}

; Function Attrs: mustprogress nounwind uwtable
define linkonce_odr void @_ZN5faiss5IndexC2ElNS_10MetricTypeE(ptr noundef nonnull align 8 dereferenceable(36) %0, i64 noundef %1, i32 noundef %2) unnamed_addr #0 comdat align 2 {
  %4 = alloca ptr, align 8
  %5 = alloca i64, align 8
  %6 = alloca i32, align 4
  store ptr %0, ptr %4, align 8
  store i64 %1, ptr %5, align 8
  store i32 %2, ptr %6, align 4
  %7 = load ptr, ptr %4, align 8
  store ptr getelementptr inbounds ({ [24 x ptr] }, ptr @_ZTVN5faiss5IndexE, i32 0, i32 0, i32 2), ptr %7, align 8
  %8 = getelementptr inbounds %"struct.faiss::Index", ptr %7, i32 0, i32 1
  %9 = load i64, ptr %5, align 8
  %10 = trunc i64 %9 to i32
  store i32 %10, ptr %8, align 8
  %11 = getelementptr inbounds %"struct.faiss::Index", ptr %7, i32 0, i32 3
  store i64 0, ptr %11, align 8
  %12 = getelementptr inbounds %"struct.faiss::Index", ptr %7, i32 0, i32 4
  store i8 0, ptr %12, align 8
  %13 = getelementptr inbounds %"struct.faiss::Index", ptr %7, i32 0, i32 5
  store i8 1, ptr %13, align 1
  %14 = getelementptr inbounds %"struct.faiss::Index", ptr %7, i32 0, i32 7
  %15 = load i32, ptr %6, align 4
  store i32 %15, ptr %14, align 4
  %16 = getelementptr inbounds %"struct.faiss::Index", ptr %7, i32 0, i32 8
  store float 0.000000e+00, ptr %16, align 8
  ret void
}

; Function Attrs: mustprogress uwtable
define void @_ZN5faiss13IndexFastScanC2Ev(ptr noundef nonnull align 8 dereferenceable(136) %0) unnamed_addr #2 align 2 personality ptr @__gxx_personality_v0 {
  %2 = alloca ptr, align 8
  %3 = alloca ptr, align 8
  %4 = alloca i32, align 4
  store ptr %0, ptr %2, align 8
  %5 = load ptr, ptr %2, align 8
  call void @_ZN5faiss5IndexC2ElNS_10MetricTypeE(ptr noundef nonnull align 8 dereferenceable(36) %5, i64 noundef 0, i32 noundef 1)
  store ptr getelementptr inbounds ({ [26 x ptr] }, ptr @_ZTVN5faiss13IndexFastScanE, i32 0, i32 0, i32 2), ptr %5, align 8
  %6 = getelementptr inbounds %"struct.faiss::IndexFastScan", ptr %5, i32 0, i32 1
  store i32 0, ptr %6, align 4
  %7 = getelementptr inbounds %"struct.faiss::IndexFastScan", ptr %5, i32 0, i32 2
  store i32 0, ptr %7, align 8
  %8 = getelementptr inbounds %"struct.faiss::IndexFastScan", ptr %5, i32 0, i32 3
  store i32 0, ptr %8, align 4
  %9 = getelementptr inbounds %"struct.faiss::IndexFastScan", ptr %5, i32 0, i32 4
  store i32 0, ptr %9, align 8
  %10 = getelementptr inbounds %"struct.faiss::IndexFastScan", ptr %5, i32 0, i32 5
  store i64 0, ptr %10, align 8
  %11 = getelementptr inbounds %"struct.faiss::IndexFastScan", ptr %5, i32 0, i32 8
  store i64 0, ptr %11, align 8
  %12 = getelementptr inbounds %"struct.faiss::IndexFastScan", ptr %5, i32 0, i32 9
  store i64 0, ptr %12, align 8
  %13 = getelementptr inbounds %"struct.faiss::IndexFastScan", ptr %5, i32 0, i32 10
  store i64 0, ptr %13, align 8
  %14 = getelementptr inbounds %"struct.faiss::IndexFastScan", ptr %5, i32 0, i32 11
  invoke void @_ZN5faiss12AlignedTableIhLi32EEC2Ev(ptr noundef nonnull align 8 dereferenceable(24) %14)
          to label %15 unwind label %17

15:                                               ; preds = %1
  %16 = getelementptr inbounds %"struct.faiss::IndexFastScan", ptr %5, i32 0, i32 12
  store ptr null, ptr %16, align 8
  ret void

17:                                               ; preds = %1
  %18 = landingpad { ptr, i32 }
          cleanup
  %19 = extractvalue { ptr, i32 } %18, 0
  store ptr %19, ptr %3, align 8
  %20 = extractvalue { ptr, i32 } %18, 1
  store i32 %20, ptr %4, align 4
  call void @_ZN5faiss5IndexD2Ev(ptr noundef nonnull align 8 dereferenceable(36) %5) #13
  br label %21

21:                                               ; preds = %17
  %22 = load ptr, ptr %3, align 8
  %23 = load i32, ptr %4, align 4
  %24 = insertvalue { ptr, i32 } poison, ptr %22, 0
  %25 = insertvalue { ptr, i32 } %24, i32 %23, 1
  resume { ptr, i32 } %25
}